; Function Attrs: mustprogress nofree norecurse nosync nounwind willreturn memory(read, inaccessiblemem: none) uwtable
define dso_local i64 @brin_minmax_multi_distance_tid(ptr noundef readonly captures(none) %0) local_unnamed_addr #4 {
  %2 = getelementptr inbounds nuw i8, ptr %0, i64 32
  %3 = load i64, ptr %2, align 8
  %4 = inttoptr i64 %3 to ptr
  %5 = getelementptr inbounds nuw i8, ptr %0, i64 48
  %6 = load i64, ptr %5, align 8
  %7 = inttoptr i64 %6 to ptr
  %.val = load i16, ptr %4, align 2
  %8 = getelementptr i8, ptr %4, i64 2
  %.val8 = load i16, ptr %8, align 2
  %9 = zext i16 %.val to i32
  %10 = shl nuw i32 %9, 16
  %11 = zext i16 %.val8 to i32
  %12 = or disjoint i32 %10, %11
  %13 = mul i32 %12, 291
  %14 = getelementptr i8, ptr %4, i64 4
  %.val11 = load i16, ptr %14, align 2
  %15 = zext i16 %.val11 to i32
  %16 = add i32 %13, %15
  %17 = uitofp i32 %16 to double
  %.val9 = load i16, ptr %7, align 2
  %18 = getelementptr i8, ptr %7, i64 2
  %.val10 = load i16, ptr %18, align 2
  %19 = zext i16 %.val9 to i32
  %20 = shl nuw i32 %19, 16
  %21 = zext i16 %.val10 to i32
  %22 = or disjoint i32 %20, %21
  %23 = mul i32 %22, 291
  %24 = getelementptr i8, ptr %7, i64 4
  %.val12 = load i16, ptr %24, align 2
  %25 = zext i16 %.val12 to i32
  %26 = add i32 %23, %25
  %27 = uitofp i32 %26 to double
  %28 = fsub double %27, %17
  %29 = bitcast double %28 to i64
  ret i64 %29
}